target datalayout = "e-m:e-p270:32:32-p271:32:32-p272:64:64-i64:64-i128:128-f80:128-n8:16:32:64-S128"
target triple = "x86_64-pc-linux-gnu"

%struct.WasmEdge_ConfigureContext = type { %"class.WasmEdge::Configure" }
%"class.WasmEdge::Configure" = type { %"class.std::shared_mutex", %"class.std::bitset", %"class.std::bitset.20", %"class.std::unordered_set", %"class.WasmEdge::CompilerConfigure", [3 x i8], %"class.WasmEdge::RuntimeConfigure", %"class.WasmEdge::StatisticsConfigure" }
%"class.std::shared_mutex" = type { %"class.std::__shared_mutex_pthread" }
%"class.std::__shared_mutex_pthread" = type { %union.pthread_rwlock_t }
%union.pthread_rwlock_t = type { %struct.__pthread_rwlock_arch_t }
%struct.__pthread_rwlock_arch_t = type { i32, i32, i32, i32, i32, i32, i32, i32, i8, [7 x i8], i64, i32 }
%"class.std::bitset" = type { %"struct.std::_Base_bitset" }
%"struct.std::_Base_bitset" = type { i64 }
%"class.std::bitset.20" = type { %"struct.std::_Base_bitset" }
%"class.std::unordered_set" = type { %"class.std::_Hashtable" }
%"class.std::_Hashtable" = type { ptr, i64, %"struct.std::__detail::_Hash_node_base", i64, %"struct.std::__detail::_Prime_rehash_policy", ptr }
%"struct.std::__detail::_Hash_node_base" = type { ptr }
%"struct.std::__detail::_Prime_rehash_policy" = type { float, i64 }
%"class.WasmEdge::CompilerConfigure" = type { %"struct.std::atomic", %"struct.std::atomic.23", %"struct.std::atomic.24", %"struct.std::atomic.24", %"struct.std::atomic.24" }
%"struct.std::atomic" = type { i8 }
%"struct.std::atomic.23" = type { i8 }
%"struct.std::atomic.24" = type { %"struct.std::__atomic_base" }
%"struct.std::__atomic_base" = type { i8 }
%"class.WasmEdge::RuntimeConfigure" = type <{ %"struct.std::atomic.25", %"struct.std::atomic.24", %"struct.std::atomic.24", %"struct.std::atomic.24", i8 }>
%"struct.std::atomic.25" = type { %"struct.std::__atomic_base.26" }
%"struct.std::__atomic_base.26" = type { i32 }
%"class.WasmEdge::StatisticsConfigure" = type { %"struct.std::atomic.24", %"struct.std::atomic.24", %"struct.std::atomic.24", %"struct.std::atomic.27" }
%"struct.std::atomic.27" = type { %"struct.std::__atomic_base.28" }
%"struct.std::__atomic_base.28" = type { i64 }

; Function Attrs: mustprogress nounwind uwtable
define void @WasmEdge_ConfigureRemoveProposal(ptr noundef %0, i32 noundef %1) #0 {
  %3 = alloca ptr, align 8
  %4 = alloca i32, align 4
  store ptr %0, ptr %3, align 8
  store i32 %1, ptr %4, align 4
  %5 = load ptr, ptr %3, align 8
  %6 = icmp ne ptr %5, null
  br i1 %6, label %7, label %12

7:                                                ; preds = %2
  %8 = load ptr, ptr %3, align 8
  %9 = getelementptr inbounds %struct.WasmEdge_ConfigureContext, ptr %8, i32 0, i32 0
  %10 = load i32, ptr %4, align 4
  %11 = trunc i32 %10 to i8
  call void @_ZN8WasmEdge9Configure14removeProposalENS_8ProposalE(ptr noundef nonnull align 8 dereferenceable(160) %9, i8 noundef zeroext %11) #18
  br label %12

12:                                               ; preds = %7, %2
  ret void
}