; Function Attrs: mustprogress nounwind uwtable
define void @WasmEdge_ConfigureRemoveProposal(ptr noundef %0, i32 noundef %1) local_unnamed_addr #10 {
  %.not = icmp eq ptr %0, null
  br i1 %.not, label %5, label %3

3:                                                ; preds = %2
  %4 = trunc i32 %1 to i8
  tail call void @_ZN8WasmEdge9Configure14removeProposalENS_8ProposalE(ptr noundef nonnull align 8 dereferenceable(160) %0, i8 noundef zeroext %4) #37
  br label %5

5:                                                ; preds = %3, %2
  ret void
}